target datalayout = "e-m:e-p270:32:32-p271:32:32-p272:64:64-i64:64-i128:128-f80:128-n8:16:32:64-S128"
target triple = "x86_64-pc-linux-gnu"

%struct.darktable_t = type { %struct.dt_codepath_t, i32, i32, ptr, ptr, ptr, ptr, ptr, ptr, ptr, ptr, ptr, ptr, ptr, ptr, ptr, ptr, ptr, ptr, ptr, ptr, ptr, ptr, ptr, ptr, ptr, ptr, ptr, ptr, ptr, [64 x %struct.dt_pthread_mutex_t], %struct.dt_pthread_mutex_t, %struct.dt_pthread_mutex_t, %struct.dt_pthread_mutex_t, %struct.dt_pthread_mutex_t, %struct.dt_pthread_mutex_t, ptr, ptr, ptr, ptr, ptr, ptr, ptr, ptr, ptr, ptr, ptr, ptr, ptr, %struct.dt_lua_state_t, ptr, double, ptr, i32, [47 x i32], i32, i32, ptr, ptr, %struct.dt_sys_resources_t, %struct.dt_backthumb_t, %struct.dt_gimp_t }
%struct.dt_codepath_t = type { i8, [3 x i8] }
%struct.dt_pthread_mutex_t = type { %union.pthread_mutex_t }
%union.pthread_mutex_t = type { %struct.__pthread_mutex_s }
%struct.__pthread_mutex_s = type { i32, i32, i32, i32, i32, i16, i16, %struct.__pthread_internal_list }
%struct.__pthread_internal_list = type { ptr, ptr }
%struct.dt_lua_state_t = type { i32 }
%struct.dt_sys_resources_t = type { i64, i64, ptr, ptr, i32 }
%struct.dt_backthumb_t = type { double, double, i32, i32, i32, i32 }
%struct.dt_gimp_t = type { i32, ptr, ptr, i32, i32 }
%struct.dt_develop_t = type { i32, i32, i32, ptr, double, double, i32, i32, i32, i32, i32, double, i32, i32, i32, ptr, ptr, [8 x i8], %struct.dt_image_t, i32, i32, %struct.dt_pthread_mutex_t, i32, ptr, i32, ptr, i32, ptr, ptr, i32, ptr, ptr, ptr, ptr, i32, i32, ptr, ptr, ptr, ptr, i32, i32, i32, float, float, ptr, i32, %struct.anon.5, %struct.dt_dev_chroma_t, %struct.anon.8, %struct.anon.9, %struct.anon.10, %struct.anon.11, %struct.anon.12, %struct.anon.13, ptr, ptr, %struct.dt_dev_viewport_t, %struct.dt_dev_viewport_t, i32, i32, i32, ptr, [8 x i8] }
%struct.dt_image_t = type { i32, i32, float, float, float, float, float, float, float, [64 x i8], [64 x i8], [128 x i8], [64 x i8], [64 x i8], [64 x i8], [64 x i8], i64, i32, %union.dt_image_correction_data_t, [64 x i8], [64 x i8], [64 x i8], [128 x i8], i32, [256 x i8], i32, i32, i32, i32, i32, i32, i32, i32, i32, i32, float, i32, i32, i32, i32, i32, i32, i64, i64, i64, i64, i32, [12 x i8], %struct.dt_iop_buffer_dsc_t, [9 x float], ptr, i32, i32, %struct.dt_image_raw_parameters_t, %struct.dt_image_geoloc_t, %struct._color_harmony_t, i16, [4 x i16], i32, i32, float, float, [4 x float], [4 x [3 x float]], [4 x float], ptr, ptr, i32, i32, [8 x i8] }
%union.dt_image_correction_data_t = type { %struct.anon.0 }
%struct.anon.0 = type { i32, float, [11 x float], [11 x float], [11 x float], [11 x float], [11 x float] }
%struct.dt_iop_buffer_dsc_t = type { i32, i32, i32, [6 x [6 x i8]], %struct.anon.3, [12 x i8], %struct.anon.4, [4 x float], i32, [12 x i8] }
%struct.anon.3 = type { i16, i16 }
%struct.anon.4 = type { i32, [12 x i8], [4 x float] }
%struct.dt_image_raw_parameters_t = type { i32 }
%struct.dt_image_geoloc_t = type { double, double, double }
%struct._color_harmony_t = type { i32, i32, i32 }
%struct.anon.5 = type { %struct.dt_dev_proxy_exposure_t, ptr, %struct.anon.6, %struct.anon.7 }
%struct.dt_dev_proxy_exposure_t = type { ptr, ptr, ptr, ptr }
%struct.anon.6 = type { ptr, ptr, ptr, ptr, ptr, ptr, ptr, ptr, ptr }
%struct.anon.7 = type { ptr, ptr, ptr, ptr, ptr }
%struct.dt_dev_chroma_t = type { ptr, ptr, [4 x double], [4 x double], [4 x double], i32 }
%struct.anon.8 = type { ptr, ptr, ptr }
%struct.anon.9 = type { ptr, ptr, i32, i32, float, float, i32 }
%struct.anon.10 = type { ptr, ptr, i32, i32, i32, float }
%struct.anon.11 = type { ptr }
%struct.anon.12 = type { ptr, i32 }
%struct.anon.13 = type { ptr, ptr, ptr }
%struct.dt_dev_viewport_t = type { ptr, i32, i32, i32, i32, i32, double, double, double, i32, i32, i32, float, float, float, ptr }
%struct._GList = type { ptr, ptr, ptr }
%struct.dt_iop_module_t = type { i32, ptr, ptr, ptr, ptr, ptr, ptr, ptr, ptr, ptr, ptr, ptr, ptr, ptr, ptr, ptr, ptr, ptr, ptr, ptr, ptr, ptr, ptr, ptr, ptr, ptr, ptr, ptr, ptr, ptr, ptr, ptr, ptr, ptr, ptr, ptr, ptr, ptr, ptr, ptr, ptr, ptr, ptr, ptr, ptr, ptr, ptr, ptr, ptr, ptr, ptr, ptr, ptr, ptr, ptr, ptr, ptr, [20 x i8], i32, i32, i32, i32, i32, i32, i32, [8 x i8], [4 x float], [4 x float], [4 x float], [4 x float], [4 x float], [4 x float], ptr, %struct.dt_dev_histogram_stats_t, [4 x i32], i32, i32, ptr, i32, i32, ptr, ptr, i32, ptr, %struct.dt_pthread_mutex_t, ptr, ptr, ptr, ptr, %struct.anon.14, ptr, ptr, ptr, ptr, ptr, ptr, ptr, i32, ptr, ptr, ptr, ptr, ptr, ptr, ptr, i32, ptr, i32, [128 x i8], i32, ptr, ptr, i32, [12 x i8] }
%struct.dt_dev_histogram_stats_t = type { i32, i64, i32, i32 }
%struct.anon.14 = type { %struct.anon.15, %struct.anon.16 }
%struct.anon.15 = type { ptr, ptr }
%struct.anon.16 = type { ptr, i32 }
%struct.dt_iop_module_so_t = type { %struct.dt_action_t, ptr, ptr, ptr, ptr, ptr, ptr, ptr, ptr, ptr, ptr, ptr, ptr, ptr, ptr, ptr, ptr, ptr, ptr, ptr, ptr, ptr, ptr, ptr, ptr, ptr, ptr, ptr, ptr, ptr, ptr, ptr, ptr, ptr, ptr, ptr, ptr, ptr, ptr, ptr, ptr, ptr, ptr, ptr, ptr, ptr, ptr, ptr, ptr, ptr, ptr, ptr, ptr, ptr, ptr, ptr, ptr, [20 x i8], ptr, i32, ptr, i32, i32 }
%struct.dt_action_t = type { i32, ptr, ptr, ptr, ptr, ptr }

@.str.1 = private unnamed_addr constant [8 x i8] c"colorin\00", align 1
@darktable = external global %struct.darktable_t, align 8
@.str.6 = private unnamed_addr constant [10 x i8] c"type_work\00", align 1
@.str.7 = private unnamed_addr constant [14 x i8] c"filename_work\00", align 1
@.str.8 = private unnamed_addr constant [62 x i8] c"[dt_ioppr_get_work_profile_type] can't get colorin parameters\00", align 1
@.str.9 = private unnamed_addr constant [56 x i8] c"[dt_ioppr_get_work_profile_type] can't find colorin iop\00", align 1

; Function Attrs: inlinehint nounwind uwtable
define internal i32 @dt_iop_module_is(ptr noundef %0, ptr noundef %1) #2 {
  %3 = alloca ptr, align 8
  %4 = alloca ptr, align 8
  store ptr %0, ptr %3, align 8, !tbaa !117
  store ptr %1, ptr %4, align 8, !tbaa !28
  %5 = load ptr, ptr %3, align 8, !tbaa !117
  %6 = getelementptr inbounds nuw %struct.dt_iop_module_so_t, ptr %5, i32 0, i32 57
  %7 = getelementptr inbounds [20 x i8], ptr %6, i64 0, i64 0
  %8 = load ptr, ptr %4, align 8, !tbaa !28
  %9 = call i32 @g_strcmp0(ptr noundef %7, ptr noundef %8)
  %10 = icmp ne i32 %9, 0
  %11 = xor i1 %10, true
  %12 = zext i1 %11 to i32
  ret i32 %12
}

; Function Attrs: nounwind uwtable
define void @dt_ioppr_get_work_profile_type(ptr noundef %0, ptr noundef %1, ptr noundef %2) #0 {
  %4 = alloca ptr, align 8
  %5 = alloca ptr, align 8
  %6 = alloca ptr, align 8
  %7 = alloca ptr, align 8
  %8 = alloca ptr, align 8
  %9 = alloca ptr, align 8
  %10 = alloca i32, align 4
  %11 = alloca ptr, align 8
  %12 = alloca ptr, align 8
  %13 = alloca ptr, align 8
  %14 = alloca ptr, align 8
  %15 = alloca ptr, align 8
  store ptr %0, ptr %4, align 8, !tbaa !26
  store ptr %1, ptr %5, align 8, !tbaa !67
  store ptr %2, ptr %6, align 8, !tbaa !118
  %16 = load ptr, ptr %5, align 8, !tbaa !67
  store i32 -1, ptr %16, align 4, !tbaa !11
  %17 = load ptr, ptr %6, align 8, !tbaa !118
  store ptr null, ptr %17, align 8, !tbaa !28
  call void @llvm.lifetime.start.p0(i64 8, ptr %7) #10
  store ptr null, ptr %7, align 8, !tbaa !117
  call void @llvm.lifetime.start.p0(i64 8, ptr %8) #10
  store ptr null, ptr %8, align 8, !tbaa !104
  call void @llvm.lifetime.start.p0(i64 8, ptr %9) #10
  %18 = load ptr, ptr getelementptr inbounds nuw (%struct.darktable_t, ptr @darktable, i32 0, i32 3), align 8, !tbaa !120
  store ptr %18, ptr %9, align 8, !tbaa !63
  br label %19

19:                                               ; preds = %44, %3
  %20 = load ptr, ptr %9, align 8, !tbaa !63
  %21 = icmp ne ptr %20, null
  br i1 %21, label %23, label %22

22:                                               ; preds = %19
  store i32 2, ptr %10, align 4
  br label %46

23:                                               ; preds = %19
  call void @llvm.lifetime.start.p0(i64 8, ptr %11) #10
  %24 = load ptr, ptr %9, align 8, !tbaa !63
  %25 = getelementptr inbounds nuw %struct._GList, ptr %24, i32 0, i32 0
  %26 = load ptr, ptr %25, align 8, !tbaa !64
  store ptr %26, ptr %11, align 8, !tbaa !117
  %27 = load ptr, ptr %11, align 8, !tbaa !117
  %28 = call i32 @dt_iop_module_is(ptr noundef %27, ptr noundef @.str.1)
  %29 = icmp ne i32 %28, 0
  br i1 %29, label %30, label %32

30:                                               ; preds = %23
  %31 = load ptr, ptr %11, align 8, !tbaa !117
  store ptr %31, ptr %7, align 8, !tbaa !117
  store i32 2, ptr %10, align 4
  br label %33

32:                                               ; preds = %23
  store i32 0, ptr %10, align 4
  br label %33

33:                                               ; preds = %32, %30
  call void @llvm.lifetime.end.p0(i64 8, ptr %11) #10
  %34 = load i32, ptr %10, align 4
  switch i32 %34, label %46 [
    i32 0, label %35
  ]

35:                                               ; preds = %33
  br label %36

36:                                               ; preds = %35
  %37 = load ptr, ptr %9, align 8, !tbaa !63
  %38 = icmp ne ptr %37, null
  br i1 %38, label %39, label %43

39:                                               ; preds = %36
  %40 = load ptr, ptr %9, align 8, !tbaa !63
  %41 = getelementptr inbounds nuw %struct._GList, ptr %40, i32 0, i32 1
  %42 = load ptr, ptr %41, align 8, !tbaa !66
  br label %44

43:                                               ; preds = %36
  br label %44

44:                                               ; preds = %43, %39
  %45 = phi ptr [ %42, %39 ], [ null, %43 ]
  store ptr %45, ptr %9, align 8, !tbaa !63
  br label %19

46:                                               ; preds = %33, %22
  call void @llvm.lifetime.end.p0(i64 8, ptr %9) #10
  br label %47

47:                                               ; preds = %46
  %48 = load ptr, ptr %7, align 8, !tbaa !117
  %49 = icmp ne ptr %48, null
  br i1 %49, label %50, label %90

50:                                               ; preds = %47
  %51 = load ptr, ptr %7, align 8, !tbaa !117
  %52 = getelementptr inbounds nuw %struct.dt_iop_module_so_t, ptr %51, i32 0, i32 53
  %53 = load ptr, ptr %52, align 8, !tbaa !121
  %54 = icmp ne ptr %53, null
  br i1 %54, label %55, label %90

55:                                               ; preds = %50
  call void @llvm.lifetime.start.p0(i64 8, ptr %12) #10
  %56 = load ptr, ptr %4, align 8, !tbaa !26
  %57 = getelementptr inbounds nuw %struct.dt_develop_t, ptr %56, i32 0, i32 27
  %58 = load ptr, ptr %57, align 8, !tbaa !125
  store ptr %58, ptr %12, align 8, !tbaa !63
  br label %59

59:                                               ; preds = %86, %55
  %60 = load ptr, ptr %12, align 8, !tbaa !63
  %61 = icmp ne ptr %60, null
  br i1 %61, label %63, label %62

62:                                               ; preds = %59
  store i32 5, ptr %10, align 4
  br label %88

63:                                               ; preds = %59
  call void @llvm.lifetime.start.p0(i64 8, ptr %13) #10
  %64 = load ptr, ptr %12, align 8, !tbaa !63
  %65 = getelementptr inbounds nuw %struct._GList, ptr %64, i32 0, i32 0
  %66 = load ptr, ptr %65, align 8, !tbaa !64
  store ptr %66, ptr %13, align 8, !tbaa !104
  %67 = load ptr, ptr %13, align 8, !tbaa !104
  %68 = getelementptr inbounds nuw %struct.dt_iop_module_t, ptr %67, i32 0, i32 106
  %69 = load ptr, ptr %68, align 16, !tbaa !105
  %70 = call i32 @dt_iop_module_is(ptr noundef %69, ptr noundef @.str.1)
  %71 = icmp ne i32 %70, 0
  br i1 %71, label %72, label %74

72:                                               ; preds = %63
  %73 = load ptr, ptr %13, align 8, !tbaa !104
  store ptr %73, ptr %8, align 8, !tbaa !104
  store i32 5, ptr %10, align 4
  br label %75

74:                                               ; preds = %63
  store i32 0, ptr %10, align 4
  br label %75

75:                                               ; preds = %74, %72
  call void @llvm.lifetime.end.p0(i64 8, ptr %13) #10
  %76 = load i32, ptr %10, align 4
  switch i32 %76, label %88 [
    i32 0, label %77
  ]

77:                                               ; preds = %75
  br label %78

78:                                               ; preds = %77
  %79 = load ptr, ptr %12, align 8, !tbaa !63
  %80 = icmp ne ptr %79, null
  br i1 %80, label %81, label %85

81:                                               ; preds = %78
  %82 = load ptr, ptr %12, align 8, !tbaa !63
  %83 = getelementptr inbounds nuw %struct._GList, ptr %82, i32 0, i32 1
  %84 = load ptr, ptr %83, align 8, !tbaa !66
  br label %86

85:                                               ; preds = %78
  br label %86

86:                                               ; preds = %85, %81
  %87 = phi ptr [ %84, %81 ], [ null, %85 ]
  store ptr %87, ptr %12, align 8, !tbaa !63
  br label %59

88:                                               ; preds = %75, %62
  call void @llvm.lifetime.end.p0(i64 8, ptr %12) #10
  br label %89

89:                                               ; preds = %88
  br label %90

90:                                               ; preds = %89, %50, %47
  %91 = load ptr, ptr %8, align 8, !tbaa !104
  %92 = icmp ne ptr %91, null
  br i1 %92, label %93, label %130

93:                                               ; preds = %90
  call void @llvm.lifetime.start.p0(i64 8, ptr %14) #10
  %94 = load ptr, ptr %7, align 8, !tbaa !117
  %95 = getelementptr inbounds nuw %struct.dt_iop_module_so_t, ptr %94, i32 0, i32 53
  %96 = load ptr, ptr %95, align 8, !tbaa !121
  %97 = load ptr, ptr %8, align 8, !tbaa !104
  %98 = getelementptr inbounds nuw %struct.dt_iop_module_t, ptr %97, i32 0, i32 80
  %99 = load ptr, ptr %98, align 8, !tbaa !126
  %100 = call ptr %96(ptr noundef %99, ptr noundef @.str.6)
  store ptr %100, ptr %14, align 8, !tbaa !67
  call void @llvm.lifetime.start.p0(i64 8, ptr %15) #10
  %101 = load ptr, ptr %7, align 8, !tbaa !117
  %102 = getelementptr inbounds nuw %struct.dt_iop_module_so_t, ptr %101, i32 0, i32 53
  %103 = load ptr, ptr %102, align 8, !tbaa !121
  %104 = load ptr, ptr %8, align 8, !tbaa !104
  %105 = getelementptr inbounds nuw %struct.dt_iop_module_t, ptr %104, i32 0, i32 80
  %106 = load ptr, ptr %105, align 8, !tbaa !126
  %107 = call ptr %103(ptr noundef %106, ptr noundef @.str.7)
  store ptr %107, ptr %15, align 8, !tbaa !28
  %108 = load ptr, ptr %14, align 8, !tbaa !67
  %109 = icmp ne ptr %108, null
  br i1 %109, label %110, label %119

110:                                              ; preds = %93
  %111 = load ptr, ptr %15, align 8, !tbaa !28
  %112 = icmp ne ptr %111, null
  br i1 %112, label %113, label %119

113:                                              ; preds = %110
  %114 = load ptr, ptr %14, align 8, !tbaa !67
  %115 = load i32, ptr %114, align 4, !tbaa !11
  %116 = load ptr, ptr %5, align 8, !tbaa !67
  store i32 %115, ptr %116, align 4, !tbaa !11
  %117 = load ptr, ptr %15, align 8, !tbaa !28
  %118 = load ptr, ptr %6, align 8, !tbaa !118
  store ptr %117, ptr %118, align 8, !tbaa !28
  br label %129

119:                                              ; preds = %110, %93
  br label %120

120:                                              ; preds = %119
  %121 = load i32, ptr getelementptr inbounds nuw (%struct.darktable_t, ptr @darktable, i32 0, i32 2), align 8, !tbaa !103
  %122 = xor i32 %121, -1
  %123 = and i32 0, %122
  %124 = icmp ne i32 %123, 0
  br i1 %124, label %126, label %125

125:                                              ; preds = %120
  call void (ptr, ...) @dt_print_ext(ptr noundef @.str.8)
  br label %126

126:                                              ; preds = %125, %120
  br label %127

127:                                              ; preds = %126
  br label %128

128:                                              ; preds = %127
  br label %129

129:                                              ; preds = %128, %113
  call void @llvm.lifetime.end.p0(i64 8, ptr %15) #10
  call void @llvm.lifetime.end.p0(i64 8, ptr %14) #10
  br label %140

130:                                              ; preds = %90
  br label %131

131:                                              ; preds = %130
  %132 = load i32, ptr getelementptr inbounds nuw (%struct.darktable_t, ptr @darktable, i32 0, i32 2), align 8, !tbaa !103
  %133 = xor i32 %132, -1
  %134 = and i32 0, %133
  %135 = icmp ne i32 %134, 0
  br i1 %135, label %137, label %136

136:                                              ; preds = %131
  call void (ptr, ...) @dt_print_ext(ptr noundef @.str.9)
  br label %137

137:                                              ; preds = %136, %131
  br label %138

138:                                              ; preds = %137
  br label %139

139:                                              ; preds = %138
  br label %140

140:                                              ; preds = %139, %129
  call void @llvm.lifetime.end.p0(i64 8, ptr %8) #10
  call void @llvm.lifetime.end.p0(i64 8, ptr %7) #10
  ret void
}