; Function Attrs: nounwind uwtable
define void @dt_ioppr_get_work_profile_type(ptr noundef readonly captures(none) %0, ptr noundef writeonly captures(none) initializes((0, 4)) %1, ptr noundef writeonly captures(none) initializes((0, 8)) %2) local_unnamed_addr #0 {
  store i32 -1, ptr %1, align 4, !tbaa !108
  store ptr null, ptr %2, align 8, !tbaa !107
  %.03449 = load ptr, ptr getelementptr inbounds nuw (i8, ptr @darktable, i64 16), align 8, !tbaa !21
  %.not50 = icmp eq ptr %.03449, null
  br i1 %.not50, label %.thread, label %.lr.ph

4:                                                ; preds = %.lr.ph
  %5 = getelementptr inbounds nuw i8, ptr %.03451, i64 8
  %.034 = load ptr, ptr %5, align 8, !tbaa !21
  %.not = icmp eq ptr %.034, null
  br i1 %.not, label %.thread, label %.lr.ph

.lr.ph:                                           ; preds = %3, %4
  %.03451 = phi ptr [ %.034, %4 ], [ %.03449, %3 ]
  %6 = load ptr, ptr %.03451, align 8, !tbaa !23
  %7 = getelementptr inbounds nuw i8, ptr %6, i64 496
  %8 = tail call i32 @g_strcmp0(ptr noundef nonnull %7, ptr noundef nonnull @.str.1) #17
  %.not.i.not = icmp eq i32 %8, 0
  br i1 %.not.i.not, label %._crit_edge, label %4

._crit_edge:                                      ; preds = %.lr.ph
  %9 = getelementptr inbounds nuw i8, ptr %6, i64 464
  %10 = load ptr, ptr %9, align 8, !tbaa !109
  %.not42 = icmp eq ptr %10, null
  br i1 %.not42, label %.thread, label %11

11:                                               ; preds = %._crit_edge
  %12 = getelementptr inbounds nuw i8, ptr %0, i64 2056
  %.03554 = load ptr, ptr %12, align 8, !tbaa !21
  %.not4355 = icmp eq ptr %.03554, null
  br i1 %.not4355, label %.thread, label %.lr.ph58

13:                                               ; preds = %.lr.ph58
  %14 = getelementptr inbounds nuw i8, ptr %.03556, i64 8
  %.035 = load ptr, ptr %14, align 8, !tbaa !21
  %.not43 = icmp eq ptr %.035, null
  br i1 %.not43, label %.thread, label %.lr.ph58

.lr.ph58:                                         ; preds = %11, %13
  %.03556 = phi ptr [ %.035, %13 ], [ %.03554, %11 ]
  %15 = load ptr, ptr %.03556, align 8, !tbaa !23
  %16 = getelementptr inbounds nuw i8, ptr %15, i64 944
  %17 = load ptr, ptr %16, align 16, !tbaa !94
  %18 = getelementptr inbounds nuw i8, ptr %17, i64 496
  %19 = tail call i32 @g_strcmp0(ptr noundef nonnull %18, ptr noundef nonnull @.str.1) #17
  %.not.i46.not = icmp eq i32 %19, 0
  br i1 %.not.i46.not, label %._crit_edge59, label %13

._crit_edge59:                                    ; preds = %.lr.ph58
  %20 = load ptr, ptr %9, align 8, !tbaa !109
  %21 = getelementptr inbounds nuw i8, ptr %15, i64 680
  %22 = load ptr, ptr %21, align 8, !tbaa !113
  %23 = tail call ptr %20(ptr noundef %22, ptr noundef nonnull @.str.6) #17
  %24 = load ptr, ptr %9, align 8, !tbaa !109
  %25 = load ptr, ptr %21, align 8, !tbaa !113
  %26 = tail call ptr %24(ptr noundef %25, ptr noundef nonnull @.str.7) #17
  %27 = icmp ne ptr %23, null
  %28 = icmp ne ptr %26, null
  %or.cond = select i1 %27, i1 %28, i1 false
  br i1 %or.cond, label %29, label %31

29:                                               ; preds = %._crit_edge59
  %30 = load i32, ptr %23, align 4, !tbaa !108
  store i32 %30, ptr %1, align 4, !tbaa !108
  store ptr %26, ptr %2, align 8, !tbaa !107
  br label %32

31:                                               ; preds = %._crit_edge59
  tail call void (ptr, ...) @dt_print_ext(ptr noundef nonnull @.str.8) #17
  br label %32

.thread:                                          ; preds = %4, %13, %11, %3, %._crit_edge
  tail call void (ptr, ...) @dt_print_ext(ptr noundef nonnull @.str.9) #17
  br label %32

32:                                               ; preds = %29, %31, %.thread
  ret void
}